target datalayout = "e-m:e-p270:32:32-p271:32:32-p272:64:64-i64:64-i128:128-f80:128-n8:16:32:64-S128"
target triple = "x86_64-pc-linux-gnu"

%struct.VP8Io = type { i32, i32, i32, i32, i32, ptr, ptr, ptr, i32, i32, ptr, ptr, ptr, ptr, i32, i64, ptr, i32, i32, i32, i32, i32, i32, i32, i32, i32, ptr }
%struct.WebPDecParams = type { ptr, ptr, ptr, ptr, i32, ptr, ptr, ptr, ptr, ptr, ptr, ptr, ptr, ptr }
%struct.WebPDecBuffer = type { i32, i32, i32, i32, %union.anon, [4 x i32], ptr }
%union.anon = type { %struct.WebPYUVABuffer }
%struct.WebPYUVABuffer = type { ptr, ptr, ptr, ptr, i32, i32, i32, i32, i64, i64, i64, i64 }
%struct.WebPRescaler = type { i32, i32, i32, i32, i32, i32, i32, i32, i32, i32, i32, i32, i32, i32, i32, i32, i32, ptr, i32, ptr, ptr }

; Function Attrs: nounwind uwtable
define internal void @FillAlphaPlane(ptr noundef %0, i32 noundef %1, i32 noundef %2, i32 noundef %3) #0 {
  %5 = alloca ptr, align 8
  %6 = alloca i32, align 4
  %7 = alloca i32, align 4
  %8 = alloca i32, align 4
  %9 = alloca i32, align 4
  store ptr %0, ptr %5, align 8, !tbaa !44
  store i32 %1, ptr %6, align 4, !tbaa !19
  store i32 %2, ptr %7, align 4, !tbaa !19
  store i32 %3, ptr %8, align 4, !tbaa !19
  call void @llvm.lifetime.start.p0(i64 4, ptr %9) #6
  store i32 0, ptr %9, align 4, !tbaa !19
  br label %10

10:                                               ; preds = %23, %4
  %11 = load i32, ptr %9, align 4, !tbaa !19
  %12 = load i32, ptr %7, align 4, !tbaa !19
  %13 = icmp slt i32 %11, %12
  br i1 %13, label %14, label %26

14:                                               ; preds = %10
  %15 = load ptr, ptr %5, align 8, !tbaa !44
  %16 = load i32, ptr %6, align 4, !tbaa !19
  %17 = sext i32 %16 to i64
  %18 = mul i64 %17, 1
  call void @llvm.memset.p0.i64(ptr align 1 %15, i8 -1, i64 %18, i1 false)
  %19 = load i32, ptr %8, align 4, !tbaa !19
  %20 = load ptr, ptr %5, align 8, !tbaa !44
  %21 = sext i32 %19 to i64
  %22 = getelementptr inbounds i8, ptr %20, i64 %21
  store ptr %22, ptr %5, align 8, !tbaa !44
  br label %23

23:                                               ; preds = %14
  %24 = load i32, ptr %9, align 4, !tbaa !19
  %25 = add nsw i32 %24, 1
  store i32 %25, ptr %9, align 4, !tbaa !19
  br label %10, !llvm.loop !98

26:                                               ; preds = %10
  call void @llvm.lifetime.end.p0(i64 4, ptr %9) #6
  ret void
}

; Function Attrs: nounwind uwtable
define internal i32 @Rescale(ptr noundef %0, i32 noundef %1, i32 noundef %2, ptr noundef %3) #0 {
  %5 = alloca ptr, align 8
  %6 = alloca i32, align 4
  %7 = alloca i32, align 4
  %8 = alloca ptr, align 8
  %9 = alloca i32, align 4
  %10 = alloca i32, align 4
  store ptr %0, ptr %5, align 8, !tbaa !44
  store i32 %1, ptr %6, align 4, !tbaa !19
  store i32 %2, ptr %7, align 4, !tbaa !19
  store ptr %3, ptr %8, align 8, !tbaa !45
  call void @llvm.lifetime.start.p0(i64 4, ptr %9) #6
  store i32 0, ptr %9, align 4, !tbaa !19
  br label %11

11:                                               ; preds = %14, %4
  %12 = load i32, ptr %7, align 4, !tbaa !19
  %13 = icmp sgt i32 %12, 0
  br i1 %13, label %14, label %33

14:                                               ; preds = %11
  call void @llvm.lifetime.start.p0(i64 4, ptr %10) #6
  %15 = load ptr, ptr %8, align 8, !tbaa !45
  %16 = load i32, ptr %7, align 4, !tbaa !19
  %17 = load ptr, ptr %5, align 8, !tbaa !44
  %18 = load i32, ptr %6, align 4, !tbaa !19
  %19 = call i32 @WebPRescalerImport(ptr noundef %15, i32 noundef %16, ptr noundef %17, i32 noundef %18)
  store i32 %19, ptr %10, align 4, !tbaa !19
  %20 = load i32, ptr %10, align 4, !tbaa !19
  %21 = load i32, ptr %6, align 4, !tbaa !19
  %22 = mul nsw i32 %20, %21
  %23 = load ptr, ptr %5, align 8, !tbaa !44
  %24 = sext i32 %22 to i64
  %25 = getelementptr inbounds i8, ptr %23, i64 %24
  store ptr %25, ptr %5, align 8, !tbaa !44
  %26 = load i32, ptr %10, align 4, !tbaa !19
  %27 = load i32, ptr %7, align 4, !tbaa !19
  %28 = sub nsw i32 %27, %26
  store i32 %28, ptr %7, align 4, !tbaa !19
  %29 = load ptr, ptr %8, align 8, !tbaa !45
  %30 = call i32 @WebPRescalerExport(ptr noundef %29)
  %31 = load i32, ptr %9, align 4, !tbaa !19
  %32 = add nsw i32 %31, %30
  store i32 %32, ptr %9, align 4, !tbaa !19
  call void @llvm.lifetime.end.p0(i64 4, ptr %10) #6
  br label %11, !llvm.loop !97

33:                                               ; preds = %11
  %34 = load i32, ptr %9, align 4, !tbaa !19
  call void @llvm.lifetime.end.p0(i64 4, ptr %9) #6
  ret i32 %34
}

; Function Attrs: nounwind uwtable
define internal i32 @EmitRescaledAlphaYUV(ptr noundef %0, ptr noundef %1, i32 noundef %2) #0 {
  %4 = alloca ptr, align 8
  %5 = alloca ptr, align 8
  %6 = alloca i32, align 4
  %7 = alloca ptr, align 8
  %8 = alloca ptr, align 8
  %9 = alloca ptr, align 8
  %10 = alloca i32, align 4
  store ptr %0, ptr %4, align 8, !tbaa !8
  store ptr %1, ptr %5, align 8, !tbaa !3
  store i32 %2, ptr %6, align 4, !tbaa !19
  call void @llvm.lifetime.start.p0(i64 8, ptr %7) #6
  %11 = load ptr, ptr %5, align 8, !tbaa !3
  %12 = getelementptr inbounds nuw %struct.WebPDecParams, ptr %11, i32 0, i32 0
  %13 = load ptr, ptr %12, align 8, !tbaa !28
  %14 = getelementptr inbounds nuw %struct.WebPDecBuffer, ptr %13, i32 0, i32 4
  store ptr %14, ptr %7, align 8, !tbaa !50
  call void @llvm.lifetime.start.p0(i64 8, ptr %8) #6
  %15 = load ptr, ptr %7, align 8, !tbaa !50
  %16 = getelementptr inbounds nuw %struct.WebPYUVABuffer, ptr %15, i32 0, i32 3
  %17 = load ptr, ptr %16, align 8, !tbaa !59
  %18 = load ptr, ptr %5, align 8, !tbaa !3
  %19 = getelementptr inbounds nuw %struct.WebPDecParams, ptr %18, i32 0, i32 4
  %20 = load i32, ptr %19, align 8, !tbaa !27
  %21 = sext i32 %20 to i64
  %22 = load ptr, ptr %7, align 8, !tbaa !50
  %23 = getelementptr inbounds nuw %struct.WebPYUVABuffer, ptr %22, i32 0, i32 7
  %24 = load i32, ptr %23, align 4, !tbaa !60
  %25 = sext i32 %24 to i64
  %26 = mul nsw i64 %21, %25
  %27 = getelementptr inbounds i8, ptr %17, i64 %26
  store ptr %27, ptr %8, align 8, !tbaa !44
  %28 = load ptr, ptr %4, align 8, !tbaa !8
  %29 = getelementptr inbounds nuw %struct.VP8Io, ptr %28, i32 0, i32 26
  %30 = load ptr, ptr %29, align 8, !tbaa !78
  %31 = icmp ne ptr %30, null
  br i1 %31, label %32, label %77

32:                                               ; preds = %3
  call void @llvm.lifetime.start.p0(i64 8, ptr %9) #6
  %33 = load ptr, ptr %7, align 8, !tbaa !50
  %34 = getelementptr inbounds nuw %struct.WebPYUVABuffer, ptr %33, i32 0, i32 0
  %35 = load ptr, ptr %34, align 8, !tbaa !52
  %36 = load ptr, ptr %5, align 8, !tbaa !3
  %37 = getelementptr inbounds nuw %struct.WebPDecParams, ptr %36, i32 0, i32 4
  %38 = load i32, ptr %37, align 8, !tbaa !27
  %39 = sext i32 %38 to i64
  %40 = load ptr, ptr %7, align 8, !tbaa !50
  %41 = getelementptr inbounds nuw %struct.WebPYUVABuffer, ptr %40, i32 0, i32 4
  %42 = load i32, ptr %41, align 8, !tbaa !54
  %43 = sext i32 %42 to i64
  %44 = mul nsw i64 %39, %43
  %45 = getelementptr inbounds i8, ptr %35, i64 %44
  store ptr %45, ptr %9, align 8, !tbaa !44
  call void @llvm.lifetime.start.p0(i64 4, ptr %10) #6
  %46 = load ptr, ptr %4, align 8, !tbaa !8
  %47 = getelementptr inbounds nuw %struct.VP8Io, ptr %46, i32 0, i32 26
  %48 = load ptr, ptr %47, align 8, !tbaa !78
  %49 = load ptr, ptr %4, align 8, !tbaa !8
  %50 = getelementptr inbounds nuw %struct.VP8Io, ptr %49, i32 0, i32 0
  %51 = load i32, ptr %50, align 8, !tbaa !81
  %52 = load ptr, ptr %4, align 8, !tbaa !8
  %53 = getelementptr inbounds nuw %struct.VP8Io, ptr %52, i32 0, i32 4
  %54 = load i32, ptr %53, align 8, !tbaa !20
  %55 = load ptr, ptr %5, align 8, !tbaa !3
  %56 = getelementptr inbounds nuw %struct.WebPDecParams, ptr %55, i32 0, i32 9
  %57 = load ptr, ptr %56, align 8, !tbaa !49
  %58 = call i32 @Rescale(ptr noundef %48, i32 noundef %51, i32 noundef %54, ptr noundef %57)
  store i32 %58, ptr %10, align 4, !tbaa !19
  %59 = load i32, ptr %10, align 4, !tbaa !19
  %60 = icmp sgt i32 %59, 0
  br i1 %60, label %61, label %76

61:                                               ; preds = %32
  %62 = load ptr, ptr %9, align 8, !tbaa !44
  %63 = load ptr, ptr %7, align 8, !tbaa !50
  %64 = getelementptr inbounds nuw %struct.WebPYUVABuffer, ptr %63, i32 0, i32 4
  %65 = load i32, ptr %64, align 8, !tbaa !54
  %66 = load ptr, ptr %8, align 8, !tbaa !44
  %67 = load ptr, ptr %7, align 8, !tbaa !50
  %68 = getelementptr inbounds nuw %struct.WebPYUVABuffer, ptr %67, i32 0, i32 7
  %69 = load i32, ptr %68, align 4, !tbaa !60
  %70 = load ptr, ptr %5, align 8, !tbaa !3
  %71 = getelementptr inbounds nuw %struct.WebPDecParams, ptr %70, i32 0, i32 9
  %72 = load ptr, ptr %71, align 8, !tbaa !49
  %73 = getelementptr inbounds nuw %struct.WebPRescaler, ptr %72, i32 0, i32 13
  %74 = load i32, ptr %73, align 4, !tbaa !88
  %75 = load i32, ptr %10, align 4, !tbaa !19
  call void @WebPMultRows(ptr noundef %62, i32 noundef %65, ptr noundef %66, i32 noundef %69, i32 noundef %74, i32 noundef %75, i32 noundef 1)
  br label %76

76:                                               ; preds = %61, %32
  call void @llvm.lifetime.end.p0(i64 4, ptr %10) #6
  call void @llvm.lifetime.end.p0(i64 8, ptr %9) #6
  br label %92

77:                                               ; preds = %3
  %78 = load ptr, ptr %7, align 8, !tbaa !50
  %79 = getelementptr inbounds nuw %struct.WebPYUVABuffer, ptr %78, i32 0, i32 3
  %80 = load ptr, ptr %79, align 8, !tbaa !59
  %81 = icmp ne ptr %80, null
  br i1 %81, label %82, label %91

82:                                               ; preds = %77
  %83 = load ptr, ptr %8, align 8, !tbaa !44
  %84 = load ptr, ptr %4, align 8, !tbaa !8
  %85 = getelementptr inbounds nuw %struct.VP8Io, ptr %84, i32 0, i32 24
  %86 = load i32, ptr %85, align 4, !tbaa !39
  %87 = load i32, ptr %6, align 4, !tbaa !19
  %88 = load ptr, ptr %7, align 8, !tbaa !50
  %89 = getelementptr inbounds nuw %struct.WebPYUVABuffer, ptr %88, i32 0, i32 7
  %90 = load i32, ptr %89, align 4, !tbaa !60
  call void @FillAlphaPlane(ptr noundef %83, i32 noundef %86, i32 noundef %87, i32 noundef %90)
  br label %91

91:                                               ; preds = %82, %77
  br label %92

92:                                               ; preds = %91, %76
  call void @llvm.lifetime.end.p0(i64 8, ptr %8) #6
  call void @llvm.lifetime.end.p0(i64 8, ptr %7) #6
  ret i32 0
}