; Function Attrs: nounwind uwtable
define internal noundef i32 @EmitRescaledAlphaYUV(ptr noundef readonly captures(none) %0, ptr noundef readonly captures(none) %1, i32 noundef %2) #1 {
  %4 = load ptr, ptr %1, align 8, !tbaa !23
  %5 = getelementptr inbounds nuw i8, ptr %4, i64 40
  %6 = load ptr, ptr %5, align 8, !tbaa !43
  %7 = getelementptr inbounds nuw i8, ptr %1, i64 32
  %8 = load i32, ptr %7, align 8, !tbaa !22
  %9 = sext i32 %8 to i64
  %10 = getelementptr inbounds nuw i8, ptr %4, i64 60
  %11 = load i32, ptr %10, align 4, !tbaa !44
  %12 = sext i32 %11 to i64
  %13 = mul nsw i64 %12, %9
  %14 = getelementptr inbounds i8, ptr %6, i64 %13
  %15 = getelementptr inbounds nuw i8, ptr %0, i64 152
  %16 = load ptr, ptr %15, align 8, !tbaa !63
  %.not = icmp eq ptr %16, null
  br i1 %.not, label %46, label %17

17:                                               ; preds = %3
  %18 = getelementptr inbounds nuw i8, ptr %4, i64 16
  %19 = load ptr, ptr %18, align 8, !tbaa !36
  %20 = getelementptr inbounds nuw i8, ptr %4, i64 48
  %21 = load i32, ptr %20, align 8, !tbaa !38
  %22 = load i32, ptr %0, align 8, !tbaa !64
  %23 = getelementptr inbounds nuw i8, ptr %0, i64 16
  %24 = load i32, ptr %23, align 8, !tbaa !15
  %25 = getelementptr inbounds nuw i8, ptr %1, i64 72
  %26 = load ptr, ptr %25, align 8, !tbaa !34
  %27 = icmp sgt i32 %24, 0
  br i1 %27, label %.lr.ph.i, label %FillAlphaPlane.exit

.lr.ph.i:                                         ; preds = %17, %.lr.ph.i
  %.016.i = phi ptr [ %31, %.lr.ph.i ], [ %16, %17 ]
  %.01215.i = phi i32 [ %34, %.lr.ph.i ], [ 0, %17 ]
  %.01314.i = phi i32 [ %32, %.lr.ph.i ], [ %24, %17 ]
  %28 = tail call i32 @WebPRescalerImport(ptr noundef %26, i32 noundef %.01314.i, ptr noundef %.016.i, i32 noundef %22) #6
  %29 = mul nsw i32 %28, %22
  %30 = sext i32 %29 to i64
  %31 = getelementptr inbounds i8, ptr %.016.i, i64 %30
  %32 = sub nsw i32 %.01314.i, %28
  %33 = tail call i32 @WebPRescalerExport(ptr noundef %26) #6
  %34 = add nsw i32 %33, %.01215.i
  %35 = icmp sgt i32 %32, 0
  br i1 %35, label %.lr.ph.i, label %Rescale.exit, !llvm.loop !84

Rescale.exit:                                     ; preds = %.lr.ph.i
  %36 = icmp sgt i32 %34, 0
  br i1 %36, label %37, label %FillAlphaPlane.exit

37:                                               ; preds = %Rescale.exit
  %38 = sext i32 %21 to i64
  %39 = mul nsw i64 %38, %9
  %40 = getelementptr inbounds i8, ptr %19, i64 %39
  %41 = load i32, ptr %20, align 8, !tbaa !38
  %42 = load i32, ptr %10, align 4, !tbaa !44
  %43 = load ptr, ptr %25, align 8, !tbaa !34
  %44 = getelementptr inbounds nuw i8, ptr %43, i64 52
  %45 = load i32, ptr %44, align 4, !tbaa !76
  tail call void @WebPMultRows(ptr noundef %40, i32 noundef %41, ptr noundef %14, i32 noundef %42, i32 noundef %45, i32 noundef %34, i32 noundef 1) #6
  br label %FillAlphaPlane.exit

46:                                               ; preds = %3
  %.not24 = icmp ne ptr %6, null
  %47 = icmp sgt i32 %2, 0
  %or.cond = and i1 %47, %.not24
  br i1 %or.cond, label %.lr.ph.i25, label %FillAlphaPlane.exit

.lr.ph.i25:                                       ; preds = %46
  %48 = getelementptr inbounds nuw i8, ptr %0, i64 140
  %49 = load i32, ptr %48, align 4, !tbaa !28
  %50 = sext i32 %49 to i64
  br label %51

51:                                               ; preds = %51, %.lr.ph.i25
  %.08.i = phi i32 [ 0, %.lr.ph.i25 ], [ %53, %51 ]
  %.067.i = phi ptr [ %14, %.lr.ph.i25 ], [ %52, %51 ]
  tail call void @llvm.memset.p0.i64(ptr align 1 %.067.i, i8 -1, i64 %50, i1 false)
  %52 = getelementptr inbounds i8, ptr %.067.i, i64 %12
  %53 = add nuw nsw i32 %.08.i, 1
  %exitcond.not.i = icmp eq i32 %53, %2
  br i1 %exitcond.not.i, label %FillAlphaPlane.exit, label %51, !llvm.loop !69

FillAlphaPlane.exit:                              ; preds = %51, %17, %Rescale.exit, %37, %46
  ret i32 0
}